Certificate:
    Data:
        Version: 3 (0x2)
        Serial Number: 9 (0x9)
    Signature Algorithm: sha256WithRSAEncryption
        Issuer: C=FR, ST=RA, L=Grenoble, O=OSSI Lab, OU=HP Solution Innovation Center, CN=OSSI Lab CA/name=EasyRSA/emailAddress=pingouin@hp.com
        Validity
            Not Before: Jan 28 16:10:25 2015 GMT
            Not After : Jan 23 16:10:25 2035 GMT
        Subject: C=FR, ST=RA, L=Grenoble, O=OSSI Lab, OU=HP Solution Innovation Center, CN=lab8/name=EasyRSA/emailAddress=pingouin@hp.com
        Subject Public Key Info:
            Public Key Algorithm: rsaEncryption
                Public-Key: (2048 bit)
                Modulus:
                    00:b0:64:c7:a3:77:44:2c:ab:28:18:3a:ee:ed:b6:
                    18:ad:77:b8:2a:3a:a8:60:de:0c:82:ff:da:f1:49:
                    9e:2d:a3:89:12:a8:29:05:b8:88:bc:c3:22:39:ea:
                    f0:6c:53:3e:73:34:3e:1f:61:2e:39:b5:17:06:4d:
                    bc:21:d3:ed:8b:5d:07:21:64:4d:df:5d:37:c7:84:
                    8a:06:61:c0:a4:d8:6d:15:4a:5f:5c:cd:38:00:c7:
                    5d:9e:75:9f:43:a5:4d:b4:41:3d:60:d3:7f:25:ee:
                    e8:cd:77:56:68:92:71:b4:79:81:c7:6c:eb:09:29:
                    29:1b:16:f3:ab:cf:80:b2:00:9d:4d:a7:0a:7e:35:
                    b3:ff:da:f3:05:f5:2e:83:ee:59:18:4a:b4:1f:6c:
                    f2:f8:f4:a2:f2:07:3e:e2:7e:01:96:63:ab:73:f4:
                    03:18:23:a9:b9:a3:74:fe:ef:c4:9b:43:de:df:28:
                    ee:85:d5:77:2e:cf:63:84:37:4a:6c:32:3d:d8:99:
                    b3:47:28:21:25:56:a9:e5:e4:fa:51:0e:c2:a2:a2:
                    f1:12:f6:c6:37:29:81:5b:dc:a0:fd:b6:4f:87:8f:
                    3e:0a:c4:a5:45:b1:08:d2:27:f2:ad:f7:ad:56:60:
                    d3:83:28:94:d1:d2:3a:5e:7b:7d:99:49:a1:9f:76:
                    e3:1d
                Exponent: 65537 (0x10001)
        X509v3 extensions:
            X509v3 Basic Constraints: 
                CA:FALSE
            Netscape Comment: 
                Easy-RSA Generated Certificate
            X509v3 Subject Key Identifier: 
                E6:A1:84:E8:5A:CB:AA:28:BD:11:16:B8:B4:D8:43:13:85:42:85:D3
            X509v3 Authority Key Identifier: 
                keyid:E6:19:D2:0F:27:9D:B2:96:10:EB:C6:1A:14:00:6D:CF:D8:2C:70:9D
                DirName:/C=FR/ST=RA/L=Grenoble/O=OSSI Lab/OU=HP Solution Innovation Center/CN=OSSI Lab CA/name=EasyRSA/emailAddress=pingouin@hp.com
                serial:BF:41:0C:A8:35:80:AB:E4

            X509v3 Extended Key Usage: 
                TLS Web Client Authentication
            X509v3 Key Usage: 
                Digital Signature
    Signature Algorithm: sha256WithRSAEncryption
         25:a6:6b:92:64:9d:f2:a7:10:d8:b8:2a:97:68:c3:11:db:cf:
         82:38:c1:ab:1c:8d:80:43:8d:08:d1:06:be:f9:a6:db:f3:43:
         e7:fe:96:c5:78:2b:ed:f6:4e:6c:66:27:79:d8:67:bf:44:9c:
         a5:f2:ab:a2:49:40:eb:79:75:e7:dc:da:1a:8f:99:42:13:fa:
         60:db:91:12:1b:62:02:27:70:f8:e6:02:fd:a2:79:09:4b:c8:
         e4:1e:78:5f:ce:25:35:7c:3e:a1:f6:3c:ec:8f:7e:b0:a4:1f:
         9b:59:f1:db:4e:33:19:bc:90:ab:5b:6a:00:46:1d:c2:27:41:
         33:56:0c:54:75:0f:ab:b3:3a:34:32:32:87:ef:5e:7e:41:20:
         8c:57:fb:69:7b:8a:cf:6f:7f:24:d9:e3:37:19:b9:c6:26:93:
         cc:05:ec:33:fb:90:2f:f1:85:0f:05:53:20:b9:3f:e7:a5:ed:
         f3:da:c0:c5:a0:ab:99:e1:1d:01:16:e5:25:e7:50:19:5d:bf:
         5a:58:85:ca:76:80:75:38:9d:0c:b7:4c:e8:2e:3d:43:1d:38:
         0b:f6:b1:31:fd:92:68:1f:99:5f:b6:0e:f7:c6:4c:ea:d0:5d:
         97:6e:78:f2:3f:c3:90:a4:c6:68:23:77:d3:0a:4f:7b:01:a4:
         58:04:95:41
-----BEGIN CERTIFICATE-----
MIIFPzCCBCegAwIBAgIBCTANBgkqhkiG9w0BAQsFADCBsDELMAkGA1UEBhMCRlIx
CzAJBgNVBAgTAlJBMREwDwYDVQQHEwhHcmVub2JsZTERMA8GA1UEChMIT1NTSSBM
YWIxJjAkBgNVBAsTHUhQIFNvbHV0aW9uIElubm92YXRpb24gQ2VudGVyMRQwEgYD
VQQDEwtPU1NJIExhYiBDQTEQMA4GA1UEKRMHRWFzeVJTQTEeMBwGCSqGSIb3DQEJ
ARYPcGluZ291aW5AaHAuY29tMB4XDTE1MDEyODE2MTAyNVoXDTM1MDEyMzE2MTAy
NVowgakxCzAJBgNVBAYTAkZSMQswCQYDVQQIEwJSQTERMA8GA1UEBxMIR3Jlbm9i
bGUxETAPBgNVBAoTCE9TU0kgTGFiMSYwJAYDVQQLEx1IUCBTb2x1dGlvbiBJbm5v
dmF0aW9uIENlbnRlcjENMAsGA1UEAxMEbGFiODEQMA4GA1UEKRMHRWFzeVJTQTEe
MBwGCSqGSIb3DQEJARYPcGluZ291aW5AaHAuY29tMIIBIjANBgkqhkiG9w0BAQEF
AAOCAQ8AMIIBCgKCAQEAsGTHo3dELKsoGDru7bYYrXe4KjqoYN4Mgv/a8UmeLaOJ
EqgpBbiIvMMiOerwbFM+czQ+H2EuObUXBk28IdPti10HIWRN3103x4SKBmHApNht
FUpfXM04AMddnnWfQ6VNtEE9YNN/Je7ozXdWaJJxtHmBx2zrCSkpGxbzq8+AsgCd
TacKfjWz/9rzBfUug+5ZGEq0H2zy+PSi8gc+4n4BlmOrc/QDGCOpuaN0/u/Em0Pe
3yjuhdV3Ls9jhDdKbDI92JmzRyghJVap5eT6UQ7CoqLxEvbGNymBW9yg/bZPh48+
CsSlRbEI0ifyrfetVmDTgyiU0dI6Xnt9mUmhn3bjHQIDAQABo4IBZzCCAWMwCQYD
VR0TBAIwADAtBglghkgBhvhCAQ0EIBYeRWFzeS1SU0EgR2VuZXJhdGVkIENlcnRp
ZmljYXRlMB0GA1UdDgQWBBTmoYToWsuqKL0RFri02EMThUKF0zCB5QYDVR0jBIHd
MIHagBTmGdIPJ52ylhDrxhoUAG3P2CxwnaGBtqSBszCBsDELMAkGA1UEBhMCRlIx
CzAJBgNVBAgTAlJBMREwDwYDVQQHEwhHcmVub2JsZTERMA8GA1UEChMIT1NTSSBM
YWIxJjAkBgNVBAsTHUhQIFNvbHV0aW9uIElubm92YXRpb24gQ2VudGVyMRQwEgYD
VQQDEwtPU1NJIExhYiBDQTEQMA4GA1UEKRMHRWFzeVJTQTEeMBwGCSqGSIb3DQEJ
ARYPcGluZ291aW5AaHAuY29tggkAv0EMqDWAq+QwEwYDVR0lBAwwCgYIKwYBBQUH
AwIwCwYDVR0PBAQDAgeAMA0GCSqGSIb3DQEBCwUAA4IBAQAlpmuSZJ3ypxDYuCqX
aMMR28+COMGrHI2AQ40I0Qa++abb80Pn/pbFeCvt9k5sZid52Ge/RJyl8quiSUDr
eXXn3Noaj5lCE/pg25ESG2ICJ3D45gL9onkJS8jkHnhfziU1fD6h9jzsj36wpB+b
WfHbTjMZvJCrW2oARh3CJ0EzVgxUdQ+rszo0MjKH715+QSCMV/tpe4rPb38k2eM3
GbnGJpPMBewz+5Av8YUPBVMguT/npe3z2sDFoKuZ4R0BFuUl51AZXb9aWIXKdoB1
OJ0Mt0zoLj1DHTgL9rEx/ZJoH5lftg73xkzq0F2XbnjyP8OQpMZoI3fTCk97AaRY
BJVB
-----END CERTIFICATE-----
